; Function Attrs: mustprogress nounwind uwtable
define internal fastcc void @_ZN12_GLOBAL__N_110JSONWriter10writeEntryEN4llvm9StringRefES2_(ptr noundef nonnull align 8 dereferenceable(280) %0, ptr %1, i64 %2, ptr %3, i64 %4) unnamed_addr #0 align 2 {
  %6 = alloca %"class.std::__cxx11::basic_string", align 8
  %7 = alloca %"class.std::__cxx11::basic_string", align 8
  %8 = getelementptr inbounds nuw i8, ptr %0, i64 8
  %9 = tail call noundef i64 @_ZNK4llvm15SmallVectorBaseIjE4sizeEv(ptr noundef nonnull align 8 dereferenceable(16) %8) #27
  %.tr.i = trunc i64 %9 to i32
  %10 = shl i32 %.tr.i, 2
  %11 = add i32 %10, 4
  %12 = load ptr, ptr %0, align 8
  %13 = tail call noundef nonnull align 8 dereferenceable(48) ptr @_ZN4llvm11raw_ostream6indentEj(ptr noundef nonnull align 8 dereferenceable(48) %12, i32 noundef %11) #27
  %14 = getelementptr inbounds nuw i8, ptr %13, i64 24
  %15 = load ptr, ptr %14, align 8
  %16 = getelementptr inbounds nuw i8, ptr %13, i64 32
  %17 = load ptr, ptr %16, align 8
  %18 = ptrtoint ptr %15 to i64
  %19 = ptrtoint ptr %17 to i64
  %20 = sub i64 %18, %19
  %21 = icmp ult i64 %20, 2
  br i1 %21, label %22, label %24

22:                                               ; preds = %5
  %23 = tail call noundef nonnull align 8 dereferenceable(48) ptr @_ZN4llvm11raw_ostream5writeEPKcm(ptr noundef nonnull align 8 dereferenceable(48) %13, ptr noundef nonnull @.str.79, i64 noundef 2) #27
  br label %_ZN4llvm11raw_ostreamlsEPKc.exit

24:                                               ; preds = %5
  store i16 2683, ptr %17, align 1
  %25 = load ptr, ptr %16, align 8
  %26 = getelementptr inbounds i8, ptr %25, i64 2
  store ptr %26, ptr %16, align 8
  br label %_ZN4llvm11raw_ostreamlsEPKc.exit

_ZN4llvm11raw_ostreamlsEPKc.exit:                 ; preds = %22, %24
  %27 = load ptr, ptr %0, align 8
  %28 = add i32 %10, 6
  %29 = tail call noundef nonnull align 8 dereferenceable(48) ptr @_ZN4llvm11raw_ostream6indentEj(ptr noundef nonnull align 8 dereferenceable(48) %27, i32 noundef %28) #27
  %30 = getelementptr inbounds nuw i8, ptr %29, i64 24
  %31 = load ptr, ptr %30, align 8
  %32 = getelementptr inbounds nuw i8, ptr %29, i64 32
  %33 = load ptr, ptr %32, align 8
  %34 = ptrtoint ptr %31 to i64
  %35 = ptrtoint ptr %33 to i64
  %36 = sub i64 %34, %35
  %37 = icmp ult i64 %36, 16
  br i1 %37, label %38, label %40

38:                                               ; preds = %_ZN4llvm11raw_ostreamlsEPKc.exit
  %39 = tail call noundef nonnull align 8 dereferenceable(48) ptr @_ZN4llvm11raw_ostream5writeEPKcm(ptr noundef nonnull align 8 dereferenceable(48) %29, ptr noundef nonnull @.str.84, i64 noundef 16) #27
  br label %_ZN4llvm11raw_ostreamlsEPKc.exit13

40:                                               ; preds = %_ZN4llvm11raw_ostreamlsEPKc.exit
  tail call void @llvm.memcpy.p0.p0.i64(ptr noundef nonnull align 1 dereferenceable(16) %33, ptr noundef nonnull align 1 dereferenceable(16) @.str.84, i64 16, i1 false)
  %41 = load ptr, ptr %32, align 8
  %42 = getelementptr inbounds i8, ptr %41, i64 16
  store ptr %42, ptr %32, align 8
  br label %_ZN4llvm11raw_ostreamlsEPKc.exit13

_ZN4llvm11raw_ostreamlsEPKc.exit13:               ; preds = %38, %40
  %43 = load ptr, ptr %0, align 8
  %44 = tail call noundef nonnull align 8 dereferenceable(48) ptr @_ZN4llvm11raw_ostream6indentEj(ptr noundef nonnull align 8 dereferenceable(48) %43, i32 noundef %28) #27
  %45 = getelementptr inbounds nuw i8, ptr %44, i64 24
  %46 = load ptr, ptr %45, align 8
  %47 = getelementptr inbounds nuw i8, ptr %44, i64 32
  %48 = load ptr, ptr %47, align 8
  %49 = ptrtoint ptr %46 to i64
  %50 = ptrtoint ptr %48 to i64
  %51 = sub i64 %49, %50
  %52 = icmp ult i64 %51, 9
  br i1 %52, label %53, label %55

53:                                               ; preds = %_ZN4llvm11raw_ostreamlsEPKc.exit13
  %54 = tail call noundef nonnull align 8 dereferenceable(48) ptr @_ZN4llvm11raw_ostream5writeEPKcm(ptr noundef nonnull align 8 dereferenceable(48) %44, ptr noundef nonnull @.str.81, i64 noundef 9) #27
  br label %_ZN4llvm11raw_ostreamlsEPKc.exit16

55:                                               ; preds = %_ZN4llvm11raw_ostreamlsEPKc.exit13
  tail call void @llvm.memcpy.p0.p0.i64(ptr noundef nonnull align 1 dereferenceable(9) %48, ptr noundef nonnull align 1 dereferenceable(9) @.str.81, i64 9, i1 false)
  %56 = load ptr, ptr %47, align 8
  %57 = getelementptr inbounds i8, ptr %56, i64 9
  store ptr %57, ptr %47, align 8
  br label %_ZN4llvm11raw_ostreamlsEPKc.exit16

_ZN4llvm11raw_ostreamlsEPKc.exit16:               ; preds = %53, %55
  %.0.i.i15 = phi ptr [ %54, %53 ], [ %44, %55 ]
  call void @_ZN4llvm4yaml6escapeB5cxx11ENS_9StringRefEb(ptr dead_on_unwind nonnull writable sret(%"class.std::__cxx11::basic_string") align 8 %6, ptr %1, i64 %2, i1 noundef zeroext true) #27
  %58 = call noundef ptr @_ZNKSt7__cxx1112basic_stringIcSt11char_traitsIcESaIcEE4dataEv(ptr noundef nonnull align 8 dereferenceable(32) %6) #27
  %59 = call noundef i64 @_ZNKSt7__cxx1112basic_stringIcSt11char_traitsIcESaIcEE6lengthEv(ptr noundef nonnull align 8 dereferenceable(32) %6) #27
  %60 = call noundef nonnull align 8 dereferenceable(48) ptr @_ZN4llvm11raw_ostream5writeEPKcm(ptr noundef nonnull align 8 dereferenceable(48) %.0.i.i15, ptr noundef %58, i64 noundef %59) #27
  %61 = getelementptr inbounds nuw i8, ptr %60, i64 24
  %62 = load ptr, ptr %61, align 8
  %63 = getelementptr inbounds nuw i8, ptr %60, i64 32
  %64 = load ptr, ptr %63, align 8
  %65 = ptrtoint ptr %62 to i64
  %66 = ptrtoint ptr %64 to i64
  %67 = sub i64 %65, %66
  %68 = icmp ult i64 %67, 3
  br i1 %68, label %69, label %71

69:                                               ; preds = %_ZN4llvm11raw_ostreamlsEPKc.exit16
  %70 = call noundef nonnull align 8 dereferenceable(48) ptr @_ZN4llvm11raw_ostream5writeEPKcm(ptr noundef nonnull align 8 dereferenceable(48) %60, ptr noundef nonnull @.str.82, i64 noundef 3) #27
  br label %_ZN4llvm11raw_ostreamlsEPKc.exit19

71:                                               ; preds = %_ZN4llvm11raw_ostreamlsEPKc.exit16
  call void @llvm.memcpy.p0.p0.i64(ptr noundef nonnull align 1 dereferenceable(3) %64, ptr noundef nonnull align 1 dereferenceable(3) @.str.82, i64 3, i1 false)
  %72 = load ptr, ptr %63, align 8
  %73 = getelementptr inbounds i8, ptr %72, i64 3
  store ptr %73, ptr %63, align 8
  br label %_ZN4llvm11raw_ostreamlsEPKc.exit19

_ZN4llvm11raw_ostreamlsEPKc.exit19:               ; preds = %69, %71
  call void @_ZNSt7__cxx1112basic_stringIcSt11char_traitsIcESaIcEED1Ev(ptr noundef nonnull align 8 dereferenceable(32) %6) #27
  %74 = load ptr, ptr %0, align 8
  %75 = call noundef nonnull align 8 dereferenceable(48) ptr @_ZN4llvm11raw_ostream6indentEj(ptr noundef nonnull align 8 dereferenceable(48) %74, i32 noundef %28) #27
  %76 = getelementptr inbounds nuw i8, ptr %75, i64 24
  %77 = load ptr, ptr %76, align 8
  %78 = getelementptr inbounds nuw i8, ptr %75, i64 32
  %79 = load ptr, ptr %78, align 8
  %80 = ptrtoint ptr %77 to i64
  %81 = ptrtoint ptr %79 to i64
  %82 = sub i64 %80, %81
  %83 = icmp ult i64 %82, 22
  br i1 %83, label %84, label %86

84:                                               ; preds = %_ZN4llvm11raw_ostreamlsEPKc.exit19
  %85 = call noundef nonnull align 8 dereferenceable(48) ptr @_ZN4llvm11raw_ostream5writeEPKcm(ptr noundef nonnull align 8 dereferenceable(48) %75, ptr noundef nonnull @.str.85, i64 noundef 22) #27
  br label %_ZN4llvm11raw_ostreamlsEPKc.exit22

86:                                               ; preds = %_ZN4llvm11raw_ostreamlsEPKc.exit19
  call void @llvm.memcpy.p0.p0.i64(ptr noundef nonnull align 1 dereferenceable(22) %79, ptr noundef nonnull align 1 dereferenceable(22) @.str.85, i64 22, i1 false)
  %87 = load ptr, ptr %78, align 8
  %88 = getelementptr inbounds i8, ptr %87, i64 22
  store ptr %88, ptr %78, align 8
  br label %_ZN4llvm11raw_ostreamlsEPKc.exit22

_ZN4llvm11raw_ostreamlsEPKc.exit22:               ; preds = %84, %86
  %.0.i.i21 = phi ptr [ %85, %84 ], [ %75, %86 ]
  call void @_ZN4llvm4yaml6escapeB5cxx11ENS_9StringRefEb(ptr dead_on_unwind nonnull writable sret(%"class.std::__cxx11::basic_string") align 8 %7, ptr %3, i64 %4, i1 noundef zeroext true) #27
  %89 = call noundef ptr @_ZNKSt7__cxx1112basic_stringIcSt11char_traitsIcESaIcEE4dataEv(ptr noundef nonnull align 8 dereferenceable(32) %7) #27
  %90 = call noundef i64 @_ZNKSt7__cxx1112basic_stringIcSt11char_traitsIcESaIcEE6lengthEv(ptr noundef nonnull align 8 dereferenceable(32) %7) #27
  %91 = call noundef nonnull align 8 dereferenceable(48) ptr @_ZN4llvm11raw_ostream5writeEPKcm(ptr noundef nonnull align 8 dereferenceable(48) %.0.i.i21, ptr noundef %89, i64 noundef %90) #27
  %92 = getelementptr inbounds nuw i8, ptr %91, i64 24
  %93 = load ptr, ptr %92, align 8
  %94 = getelementptr inbounds nuw i8, ptr %91, i64 32
  %95 = load ptr, ptr %94, align 8
  %96 = ptrtoint ptr %93 to i64
  %97 = ptrtoint ptr %95 to i64
  %98 = sub i64 %96, %97
  %99 = icmp ult i64 %98, 2
  br i1 %99, label %100, label %102

100:                                              ; preds = %_ZN4llvm11raw_ostreamlsEPKc.exit22
  %101 = call noundef nonnull align 8 dereferenceable(48) ptr @_ZN4llvm11raw_ostream5writeEPKcm(ptr noundef nonnull align 8 dereferenceable(48) %91, ptr noundef nonnull @.str.86, i64 noundef 2) #27
  br label %_ZN4llvm11raw_ostreamlsEPKc.exit25

102:                                              ; preds = %_ZN4llvm11raw_ostreamlsEPKc.exit22
  store i16 2594, ptr %95, align 1
  %103 = load ptr, ptr %94, align 8
  %104 = getelementptr inbounds i8, ptr %103, i64 2
  store ptr %104, ptr %94, align 8
  br label %_ZN4llvm11raw_ostreamlsEPKc.exit25

_ZN4llvm11raw_ostreamlsEPKc.exit25:               ; preds = %100, %102
  call void @_ZNSt7__cxx1112basic_stringIcSt11char_traitsIcESaIcEED1Ev(ptr noundef nonnull align 8 dereferenceable(32) %7) #27
  %105 = load ptr, ptr %0, align 8
  %106 = call noundef nonnull align 8 dereferenceable(48) ptr @_ZN4llvm11raw_ostream6indentEj(ptr noundef nonnull align 8 dereferenceable(48) %105, i32 noundef %11) #27
  %107 = getelementptr inbounds nuw i8, ptr %106, i64 24
  %108 = load ptr, ptr %107, align 8
  %109 = getelementptr inbounds nuw i8, ptr %106, i64 32
  %110 = load ptr, ptr %109, align 8
  %111 = icmp eq ptr %108, %110
  br i1 %111, label %112, label %114

112:                                              ; preds = %_ZN4llvm11raw_ostreamlsEPKc.exit25
  %113 = call noundef nonnull align 8 dereferenceable(48) ptr @_ZN4llvm11raw_ostream5writeEPKcm(ptr noundef nonnull align 8 dereferenceable(48) %106, ptr noundef nonnull @.str.87, i64 noundef 1) #27
  br label %_ZN4llvm11raw_ostreamlsEPKc.exit28

114:                                              ; preds = %_ZN4llvm11raw_ostreamlsEPKc.exit25
  store i8 125, ptr %110, align 1
  %115 = load ptr, ptr %109, align 8
  %116 = getelementptr inbounds i8, ptr %115, i64 1
  store ptr %116, ptr %109, align 8
  br label %_ZN4llvm11raw_ostreamlsEPKc.exit28

_ZN4llvm11raw_ostreamlsEPKc.exit28:               ; preds = %112, %114
  ret void
}